	.file	"main.c"
	.text
	.section	.rodata
.LC0:
	.string	"%d\t%d\n"
	.text
	.globl	main
	.type	main, @function
main:
.LFB0:
	.cfi_startproc
	pushq	%rbp
	.cfi_def_cfa_offset 16
	.cfi_offset 6, -16
	movq	%rsp, %rbp
	.cfi_def_cfa_register 6
	subq	$16, %rsp
	movq	%fs:40, %rax
	movq	%rax, -8(%rbp)
	xorl	%eax, %eax
	movl	$3, -16(%rbp)
	movl	$2, -12(%rbp)
	movl	-16(%rbp), %edx
	movl	-12(%rbp), %eax
	movl	%eax, %esi
	leaq	.LC0(%rip), %rdi
	movl	$0, %eax
	call	printf@PLT
	leaq	-16(%rbp), %rdx
	leaq	-12(%rbp), %rax
	movq	%rdx, %rsi
	movq	%rax, %rdi
	call	swap
	movl	-16(%rbp), %edx
	movl	-12(%rbp), %eax
	movl	%eax, %esi
	leaq	.LC0(%rip), %rdi
	movl	$0, %eax
	call	printf@PLT
	nop
	movq	-8(%rbp), %rax
	subq	%fs:40, %rax
	je	.L2
	call	__stack_chk_fail@PLT
.L2:
	leave
	.cfi_def_cfa 7, 8
	ret
	.cfi_endproc
.LFE0:
	.size	main, .-main
	.globl	swap
	.type	swap, @function
swap:
.LFB1:
	.cfi_startproc
	pushq	%rbp
	.cfi_def_cfa_offset 16
	.cfi_offset 6, -16
	movq	%rsp, %rbp
	.cfi_def_cfa_register 6
	movq	%rdi, -8(%rbp)
	movq	%rsi, -16(%rbp)
	movq	-16(%rbp), %rax
	movl	(%rax), %edx
	movq	-8(%rbp), %rax
	movl	(%rax), %eax
	subl	%eax, %edx
	movq	-8(%rbp), %rax
	movl	%edx, (%rax)
	movq	-16(%rbp), %rax
	movl	(%rax), %edx
	movq	-8(%rbp), %rax
	movl	(%rax), %eax
	subl	%eax, %edx
	movq	-16(%rbp), %rax
	movl	%edx, (%rax)
	movq	-16(%rbp), %rax
	movl	(%rax), %edx
	movq	-8(%rbp), %rax
	movl	(%rax), %eax
	addl	%eax, %edx
	movq	-8(%rbp), %rax
	movl	%edx, (%rax)
	nop
	popq	%rbp
	.cfi_def_cfa 7, 8
	ret
	.cfi_endproc
.LFE1:
	.size	swap, .-swap
	.ident	"GCC: (GNU) 10.1.0"
	.section	.note.GNU-stack,"",@progbits
